target datalayout = "e-m:e-p270:32:32-p271:32:32-p272:64:64-i64:64-i128:128-f80:128-n8:16:32:64-S128"
target triple = "x86_64-pc-linux-gnu"

@H5P_CLS_FILE_CREATE_ID_g = external global i64, align 8
@H5_libinit_g = external global i8, align 1
@H5_libterm_g = external global i8, align 1
@.str.1 = private unnamed_addr constant [101 x i8] c"generated/home/dtcxzyw/WorkSpace/Projects/compilers/llvm-opt-benchmark/bench/hdf5/hdf5/src/H5Pfcpl.c\00", align 1
@H5E_FUNC_g = external global i64, align 8
@H5E_CANTINIT_g = external global i64, align 8
@.str.2 = private unnamed_addr constant [30 x i8] c"library initialization failed\00", align 1
@H5E_CANTSET_g = external global i64, align 8
@.str.3 = private unnamed_addr constant [22 x i8] c"can't set API context\00", align 1
@H5E_ID_g = external global i64, align 8
@H5E_BADID_g = external global i64, align 8
@.str.6 = private unnamed_addr constant [25 x i8] c"can't find object for ID\00", align 1
@H5E_PLIST_g = external global i64, align 8
@H5E_CANTGET_g = external global i64, align 8
@.str.12 = private unnamed_addr constant [14 x i8] c"addr_byte_num\00", align 1
@.str.14 = private unnamed_addr constant [13 x i8] c"obj_byte_num\00", align 1
@__func__.H5Pget_sizes = private unnamed_addr constant [13 x i8] c"H5Pget_sizes\00", align 1
@.str.16 = private unnamed_addr constant [37 x i8] c"can't get byte number for an address\00", align 1
@.str.17 = private unnamed_addr constant [34 x i8] c"can't get byte number for object \00", align 1

; Function Attrs: nounwind uwtable
define i32 @H5Pget_sizes(i64 noundef %0, ptr noundef %1, ptr noundef %2) #0 {
  %4 = alloca i64, align 8
  %5 = alloca ptr, align 8
  %6 = alloca ptr, align 8
  %7 = alloca ptr, align 8
  %8 = alloca i32, align 4
  %9 = alloca i8, align 1
  %10 = alloca i8, align 1
  %11 = alloca i8, align 1
  %12 = alloca i8, align 1
  store i64 %0, ptr %4, align 8
  store ptr %1, ptr %5, align 8
  store ptr %2, ptr %6, align 8
  store i32 0, ptr %8, align 4
  store i8 0, ptr %9, align 1
  store i8 0, ptr %10, align 1
  %13 = load i8, ptr @H5_libinit_g, align 1
  %14 = trunc i8 %13 to i1
  br i1 %14, label %19, label %15

15:                                               ; preds = %3
  %16 = load i8, ptr @H5_libterm_g, align 1
  %17 = trunc i8 %16 to i1
  %18 = xor i1 %17, true
  br label %19

19:                                               ; preds = %15, %3
  %20 = phi i1 [ false, %3 ], [ %18, %15 ]
  %21 = xor i1 %20, true
  %22 = xor i1 %21, true
  %23 = zext i1 %22 to i32
  %24 = sext i32 %23 to i64
  %25 = icmp ne i64 %24, 0
  br i1 %25, label %26, label %50

26:                                               ; preds = %19
  %27 = call i32 @H5_init_library()
  %28 = icmp slt i32 %27, 0
  %29 = xor i1 %28, true
  %30 = xor i1 %29, true
  %31 = zext i1 %30 to i32
  %32 = sext i32 %31 to i64
  %33 = icmp ne i64 %32, 0
  br i1 %33, label %34, label %49

34:                                               ; preds = %26
  br label %35

35:                                               ; preds = %34
  br label %36

36:                                               ; preds = %35
  br label %37

37:                                               ; preds = %36
  %38 = load i64, ptr @H5E_FUNC_g, align 8
  %39 = load i64, ptr @H5E_CANTINIT_g, align 8
  %40 = call i32 (ptr, ptr, i32, i64, i64, ptr, ...) @H5E_printf_stack(ptr noundef @.str.1, ptr noundef @__func__.H5Pget_sizes, i32 noundef 446, i64 noundef %38, i64 noundef %39, ptr noundef @.str.2)
  br label %41

41:                                               ; preds = %37
  store i8 1, ptr %10, align 1
  %42 = load i8, ptr %10, align 1
  %43 = trunc i8 %42 to i1
  %44 = zext i1 %43 to i8
  store i8 %44, ptr %10, align 1
  br label %45

45:                                               ; preds = %41
  br label %46

46:                                               ; preds = %45
  store i32 -1, ptr %8, align 4
  br label %148

47:                                               ; No predecessors!
  br label %48

48:                                               ; preds = %47
  br label %49

49:                                               ; preds = %48, %26
  br label %50

50:                                               ; preds = %49, %19
  %51 = call i32 @H5CX_push()
  %52 = icmp slt i32 %51, 0
  %53 = xor i1 %52, true
  %54 = xor i1 %53, true
  %55 = zext i1 %54 to i32
  %56 = sext i32 %55 to i64
  %57 = icmp ne i64 %56, 0
  br i1 %57, label %58, label %73

58:                                               ; preds = %50
  br label %59

59:                                               ; preds = %58
  br label %60

60:                                               ; preds = %59
  br label %61

61:                                               ; preds = %60
  %62 = load i64, ptr @H5E_FUNC_g, align 8
  %63 = load i64, ptr @H5E_CANTSET_g, align 8
  %64 = call i32 (ptr, ptr, i32, i64, i64, ptr, ...) @H5E_printf_stack(ptr noundef @.str.1, ptr noundef @__func__.H5Pget_sizes, i32 noundef 446, i64 noundef %62, i64 noundef %63, ptr noundef @.str.3)
  br label %65

65:                                               ; preds = %61
  store i8 1, ptr %10, align 1
  %66 = load i8, ptr %10, align 1
  %67 = trunc i8 %66 to i1
  %68 = zext i1 %67 to i8
  store i8 %68, ptr %10, align 1
  br label %69

69:                                               ; preds = %65
  br label %70

70:                                               ; preds = %69
  store i32 -1, ptr %8, align 4
  br label %148

71:                                               ; No predecessors!
  br label %72

72:                                               ; preds = %71
  br label %74

73:                                               ; preds = %50
  store i8 1, ptr %9, align 1
  br label %74

74:                                               ; preds = %73, %72
  %75 = call i32 @H5E_clear_stack()
  %76 = load i64, ptr %4, align 8
  %77 = load i64, ptr @H5P_CLS_FILE_CREATE_ID_g, align 8
  %78 = call ptr @H5P_object_verify(i64 noundef %76, i64 noundef %77)
  store ptr %78, ptr %7, align 8
  %79 = icmp eq ptr null, %78
  br i1 %79, label %80, label %95

80:                                               ; preds = %74
  br label %81

81:                                               ; preds = %80
  br label %82

82:                                               ; preds = %81
  br label %83

83:                                               ; preds = %82
  %84 = load i64, ptr @H5E_ID_g, align 8
  %85 = load i64, ptr @H5E_BADID_g, align 8
  %86 = call i32 (ptr, ptr, i32, i64, i64, ptr, ...) @H5E_printf_stack(ptr noundef @.str.1, ptr noundef @__func__.H5Pget_sizes, i32 noundef 450, i64 noundef %84, i64 noundef %85, ptr noundef @.str.6)
  br label %87

87:                                               ; preds = %83
  store i8 1, ptr %10, align 1
  %88 = load i8, ptr %10, align 1
  %89 = trunc i8 %88 to i1
  %90 = zext i1 %89 to i8
  store i8 %90, ptr %10, align 1
  br label %91

91:                                               ; preds = %87
  br label %92

92:                                               ; preds = %91
  store i32 -1, ptr %8, align 4
  br label %148

93:                                               ; No predecessors!
  br label %94

94:                                               ; preds = %93
  br label %95

95:                                               ; preds = %94, %74
  %96 = load ptr, ptr %5, align 8
  %97 = icmp ne ptr %96, null
  br i1 %97, label %98, label %121

98:                                               ; preds = %95
  %99 = load ptr, ptr %7, align 8
  %100 = call i32 @H5P_get(ptr noundef %99, ptr noundef @.str.12, ptr noundef %11)
  %101 = icmp slt i32 %100, 0
  br i1 %101, label %102, label %117

102:                                              ; preds = %98
  br label %103

103:                                              ; preds = %102
  br label %104

104:                                              ; preds = %103
  br label %105

105:                                              ; preds = %104
  %106 = load i64, ptr @H5E_PLIST_g, align 8
  %107 = load i64, ptr @H5E_CANTGET_g, align 8
  %108 = call i32 (ptr, ptr, i32, i64, i64, ptr, ...) @H5E_printf_stack(ptr noundef @.str.1, ptr noundef @__func__.H5Pget_sizes, i32 noundef 457, i64 noundef %106, i64 noundef %107, ptr noundef @.str.16)
  br label %109

109:                                              ; preds = %105
  store i8 1, ptr %10, align 1
  %110 = load i8, ptr %10, align 1
  %111 = trunc i8 %110 to i1
  %112 = zext i1 %111 to i8
  store i8 %112, ptr %10, align 1
  br label %113

113:                                              ; preds = %109
  br label %114

114:                                              ; preds = %113
  store i32 -1, ptr %8, align 4
  br label %148

115:                                              ; No predecessors!
  br label %116

116:                                              ; preds = %115
  br label %117

117:                                              ; preds = %116, %98
  %118 = load i8, ptr %11, align 1
  %119 = zext i8 %118 to i64
  %120 = load ptr, ptr %5, align 8
  store i64 %119, ptr %120, align 8
  br label %121

121:                                              ; preds = %117, %95
  %122 = load ptr, ptr %6, align 8
  %123 = icmp ne ptr %122, null
  br i1 %123, label %124, label %147

124:                                              ; preds = %121
  %125 = load ptr, ptr %7, align 8
  %126 = call i32 @H5P_get(ptr noundef %125, ptr noundef @.str.14, ptr noundef %12)
  %127 = icmp slt i32 %126, 0
  br i1 %127, label %128, label %143

128:                                              ; preds = %124
  br label %129

129:                                              ; preds = %128
  br label %130

130:                                              ; preds = %129
  br label %131

131:                                              ; preds = %130
  %132 = load i64, ptr @H5E_PLIST_g, align 8
  %133 = load i64, ptr @H5E_CANTGET_g, align 8
  %134 = call i32 (ptr, ptr, i32, i64, i64, ptr, ...) @H5E_printf_stack(ptr noundef @.str.1, ptr noundef @__func__.H5Pget_sizes, i32 noundef 464, i64 noundef %132, i64 noundef %133, ptr noundef @.str.17)
  br label %135

135:                                              ; preds = %131
  store i8 1, ptr %10, align 1
  %136 = load i8, ptr %10, align 1
  %137 = trunc i8 %136 to i1
  %138 = zext i1 %137 to i8
  store i8 %138, ptr %10, align 1
  br label %139

139:                                              ; preds = %135
  br label %140

140:                                              ; preds = %139
  store i32 -1, ptr %8, align 4
  br label %148

141:                                              ; No predecessors!
  br label %142

142:                                              ; preds = %141
  br label %143

143:                                              ; preds = %142, %124
  %144 = load i8, ptr %12, align 1
  %145 = zext i8 %144 to i64
  %146 = load ptr, ptr %6, align 8
  store i64 %145, ptr %146, align 8
  br label %147

147:                                              ; preds = %143, %121
  br label %148

148:                                              ; preds = %147, %140, %114, %92, %70, %46
  %149 = load i8, ptr %9, align 1
  %150 = trunc i8 %149 to i1
  %151 = xor i1 %150, true
  %152 = xor i1 %151, true
  %153 = zext i1 %152 to i32
  %154 = sext i32 %153 to i64
  %155 = icmp ne i64 %154, 0
  br i1 %155, label %156, label %158

156:                                              ; preds = %148
  %157 = call i32 @H5CX_pop(i1 noundef zeroext true)
  store i8 0, ptr %9, align 1
  br label %158

158:                                              ; preds = %156, %148
  %159 = load i8, ptr %10, align 1
  %160 = trunc i8 %159 to i1
  %161 = xor i1 %160, true
  %162 = xor i1 %161, true
  %163 = zext i1 %162 to i32
  %164 = sext i32 %163 to i64
  %165 = icmp ne i64 %164, 0
  br i1 %165, label %166, label %168

166:                                              ; preds = %158
  %167 = call i32 @H5E_dump_api_stack()
  br label %168

168:                                              ; preds = %166, %158
  %169 = load i32, ptr %8, align 4
  ret i32 %169
}