; Function Attrs: nounwind uwtable
define range(i32 -1, 1) i32 @H5Pget_sizes(i64 noundef %0, ptr noundef writeonly %1, ptr noundef writeonly %2) local_unnamed_addr #0 {
  %4 = alloca i8, align 1
  %5 = alloca i8, align 1
  %6 = load i8, ptr @H5_libinit_g, align 1
  %7 = trunc i8 %6 to i1
  %8 = load i8, ptr @H5_libterm_g, align 1
  %9 = trunc i8 %8 to i1
  %10 = select i1 %7, i1 true, i1 %9
  br i1 %10, label %18, label %11

11:                                               ; preds = %3
  %12 = tail call i32 @H5_init_library() #6
  %13 = icmp slt i32 %12, 0
  br i1 %13, label %14, label %18

14:                                               ; preds = %11
  %15 = load i64, ptr @H5E_FUNC_g, align 8
  %16 = load i64, ptr @H5E_CANTINIT_g, align 8
  %17 = tail call i32 (ptr, ptr, i32, i64, i64, ptr, ...) @H5E_printf_stack(ptr noundef nonnull @.str.1, ptr noundef nonnull @__func__.H5Pget_sizes, i32 noundef 446, i64 noundef %15, i64 noundef %16, ptr noundef nonnull @.str.2) #6
  br label %.thread28

18:                                               ; preds = %11, %3
  %19 = tail call i32 @H5CX_push() #6
  %20 = icmp slt i32 %19, 0
  br i1 %20, label %21, label %25

21:                                               ; preds = %18
  %22 = load i64, ptr @H5E_FUNC_g, align 8
  %23 = load i64, ptr @H5E_CANTSET_g, align 8
  %24 = tail call i32 (ptr, ptr, i32, i64, i64, ptr, ...) @H5E_printf_stack(ptr noundef nonnull @.str.1, ptr noundef nonnull @__func__.H5Pget_sizes, i32 noundef 446, i64 noundef %22, i64 noundef %23, ptr noundef nonnull @.str.3) #6
  br label %.thread28

25:                                               ; preds = %18
  %26 = tail call i32 @H5E_clear_stack() #6
  %27 = load i64, ptr @H5P_CLS_FILE_CREATE_ID_g, align 8
  %28 = tail call ptr @H5P_object_verify(i64 noundef %0, i64 noundef %27) #6
  %29 = icmp eq ptr %28, null
  br i1 %29, label %30, label %34

30:                                               ; preds = %25
  %31 = load i64, ptr @H5E_ID_g, align 8
  %32 = load i64, ptr @H5E_BADID_g, align 8
  %33 = tail call i32 (ptr, ptr, i32, i64, i64, ptr, ...) @H5E_printf_stack(ptr noundef nonnull @.str.1, ptr noundef nonnull @__func__.H5Pget_sizes, i32 noundef 450, i64 noundef %31, i64 noundef %32, ptr noundef nonnull @.str.6) #6
  br label %.thread34

34:                                               ; preds = %25
  %.not = icmp eq ptr %1, null
  br i1 %.not, label %45, label %35

35:                                               ; preds = %34
  %36 = call i32 @H5P_get(ptr noundef nonnull %28, ptr noundef nonnull @.str.12, ptr noundef nonnull %4) #6
  %37 = icmp slt i32 %36, 0
  br i1 %37, label %38, label %42

38:                                               ; preds = %35
  %39 = load i64, ptr @H5E_PLIST_g, align 8
  %40 = load i64, ptr @H5E_CANTGET_g, align 8
  %41 = call i32 (ptr, ptr, i32, i64, i64, ptr, ...) @H5E_printf_stack(ptr noundef nonnull @.str.1, ptr noundef nonnull @__func__.H5Pget_sizes, i32 noundef 457, i64 noundef %39, i64 noundef %40, ptr noundef nonnull @.str.16) #6
  br label %.thread34

42:                                               ; preds = %35
  %43 = load i8, ptr %4, align 1
  %44 = zext i8 %43 to i64
  store i64 %44, ptr %1, align 8
  br label %45

45:                                               ; preds = %42, %34
  %.not19 = icmp eq ptr %2, null
  br i1 %.not19, label %57, label %46

46:                                               ; preds = %45
  %47 = call i32 @H5P_get(ptr noundef nonnull %28, ptr noundef nonnull @.str.14, ptr noundef nonnull %5) #6
  %48 = icmp slt i32 %47, 0
  br i1 %48, label %49, label %53

49:                                               ; preds = %46
  %50 = load i64, ptr @H5E_PLIST_g, align 8
  %51 = load i64, ptr @H5E_CANTGET_g, align 8
  %52 = call i32 (ptr, ptr, i32, i64, i64, ptr, ...) @H5E_printf_stack(ptr noundef nonnull @.str.1, ptr noundef nonnull @__func__.H5Pget_sizes, i32 noundef 464, i64 noundef %50, i64 noundef %51, ptr noundef nonnull @.str.17) #6
  br label %.thread34

53:                                               ; preds = %46
  %54 = load i8, ptr %5, align 1
  %55 = zext i8 %54 to i64
  store i64 %55, ptr %2, align 8
  br label %57

.thread34:                                        ; preds = %49, %38, %30
  %56 = call i32 @H5CX_pop(i1 noundef zeroext true) #6
  br label %.thread28

57:                                               ; preds = %45, %53
  %58 = call i32 @H5CX_pop(i1 noundef zeroext true) #6
  br label %60

.thread28:                                        ; preds = %21, %14, %.thread34
  %59 = call i32 @H5E_dump_api_stack() #6
  br label %60

60:                                               ; preds = %57, %.thread28
  %.0152331 = phi i32 [ -1, %.thread28 ], [ 0, %57 ]
  ret i32 %.0152331
}